; Function Attrs: mustprogress nofree norecurse nosync nounwind willreturn memory(read, inaccessiblemem: none) uwtable
define noundef i32 @_ZN16veloxtpFlexLexer12yy_top_stateEv(ptr nocapture noundef nonnull readonly align 8 dereferenceable(732) %this) local_unnamed_addr #16 align 2 {
entry:
  %yy_start_stack = getelementptr inbounds i8, ptr %this, i64 40
  %0 = load ptr, ptr %yy_start_stack, align 8
  %yy_start_stack_ptr = getelementptr inbounds i8, ptr %this, i64 28
  %1 = load i32, ptr %yy_start_stack_ptr, align 4
  %2 = sext i32 %1 to i64
  %3 = getelementptr i32, ptr %0, i64 %2
  %arrayidx = getelementptr i8, ptr %3, i64 -4
  %4 = load i32, ptr %arrayidx, align 4
  ret i32 %4
}